; Function Attrs: nounwind uwtable
define zeroext range(i8 0, 2) i8 @l___private_Lake_CLI_Translate_Lean_0__Lake_instBEqFilePath__lake(ptr noundef %0, ptr noundef %1) local_unnamed_addr #0 {
  %3 = tail call ptr @l_System_FilePath_normalize(ptr noundef %0) #6
  %4 = tail call ptr @l_System_FilePath_normalize(ptr noundef %1) #6
  %5 = icmp eq ptr %3, %4
  br i1 %5, label %lean_string_dec_eq.exit, label %6

6:                                                ; preds = %2
  %7 = getelementptr i8, ptr %3, i64 8
  %.val.i.i = load i64, ptr %7, align 8, !tbaa !4
  %8 = getelementptr i8, ptr %4, i64 8
  %.val7.i.i = load i64, ptr %8, align 8, !tbaa !4
  %9 = icmp eq i64 %.val.i.i, %.val7.i.i
  br i1 %9, label %10, label %lean_string_dec_eq.exit

10:                                               ; preds = %6
  %11 = tail call zeroext i1 @lean_string_eq_cold(ptr noundef nonnull %3, ptr noundef nonnull %4) #6
  %12 = zext i1 %11 to i8
  br label %lean_string_dec_eq.exit

lean_string_dec_eq.exit:                          ; preds = %2, %6, %10
  %13 = phi i8 [ 1, %2 ], [ 0, %6 ], [ %12, %10 ]
  %14 = ptrtoint ptr %4 to i64
  %15 = and i64 %14, 1
  %.not = icmp eq i64 %15, 0
  br i1 %.not, label %16, label %lean_dec.exit

16:                                               ; preds = %lean_string_dec_eq.exit
  %17 = load i32, ptr %4, align 4, !tbaa !8
  %18 = icmp sgt i32 %17, 1
  br i1 %18, label %19, label %21, !prof !11

19:                                               ; preds = %16
  %20 = add nsw i32 %17, -1
  store i32 %20, ptr %4, align 4, !tbaa !8
  br label %lean_dec.exit

21:                                               ; preds = %16
  %.not.i7 = icmp eq i32 %17, 0
  br i1 %.not.i7, label %lean_dec.exit, label %22

22:                                               ; preds = %21
  tail call void @lean_dec_ref_cold(ptr noundef nonnull %4) #6
  br label %lean_dec.exit

lean_dec.exit:                                    ; preds = %22, %21, %19, %lean_string_dec_eq.exit
  %23 = ptrtoint ptr %3 to i64
  %24 = and i64 %23, 1
  %.not9 = icmp eq i64 %24, 0
  br i1 %.not9, label %25, label %lean_dec.exit6

25:                                               ; preds = %lean_dec.exit
  %26 = load i32, ptr %3, align 4, !tbaa !8
  %27 = icmp sgt i32 %26, 1
  br i1 %27, label %28, label %30, !prof !11

28:                                               ; preds = %25
  %29 = add nsw i32 %26, -1
  store i32 %29, ptr %3, align 4, !tbaa !8
  br label %lean_dec.exit6

30:                                               ; preds = %25
  %.not.i = icmp eq i32 %26, 0
  br i1 %.not.i, label %lean_dec.exit6, label %31

31:                                               ; preds = %30
  tail call void @lean_dec_ref_cold(ptr noundef nonnull %3) #6
  br label %lean_dec.exit6

lean_dec.exit6:                                   ; preds = %31, %30, %28, %lean_dec.exit
  ret i8 %13
}